; Function Attrs: mustprogress uwtable
define hidden noundef ptr @_ZN3ue215ComponentRepeat6acceptERNS_16ComponentVisitorE(ptr noundef nonnull align 8 dereferenceable(96) %0, ptr noundef nonnull align 8 dereferenceable(8) %1) unnamed_addr #0 align 2 {
  %3 = load ptr, ptr %1, align 8
  %4 = getelementptr inbounds nuw i8, ptr %3, i64 96
  %5 = load ptr, ptr %4, align 8
  %6 = tail call noundef ptr %5(ptr noundef nonnull align 8 dereferenceable(8) %1, ptr noundef nonnull %0)
  %.not = icmp eq ptr %6, %0
  br i1 %.not, label %11, label %7

7:                                                ; preds = %2
  %8 = load ptr, ptr %1, align 8
  %9 = getelementptr inbounds nuw i8, ptr %8, i64 208
  %10 = load ptr, ptr %9, align 8
  tail call void %10(ptr noundef nonnull align 8 dereferenceable(8) %1, ptr noundef nonnull %0)
  br label %27

11:                                               ; preds = %2
  %12 = getelementptr inbounds nuw i8, ptr %0, i64 24
  %13 = load ptr, ptr %12, align 8
  %14 = load ptr, ptr %13, align 8
  %15 = getelementptr inbounds nuw i8, ptr %14, i64 24
  %16 = load ptr, ptr %15, align 8
  %17 = tail call noundef ptr %16(ptr noundef nonnull align 8 dereferenceable(16) %13, ptr noundef nonnull align 8 dereferenceable(8) %1)
  %18 = load ptr, ptr %12, align 8
  %.not13 = icmp eq ptr %17, %18
  br i1 %.not13, label %_ZNSt10unique_ptrIN3ue29ComponentESt14default_deleteIS1_EE5resetEPS1_.exit, label %19

19:                                               ; preds = %11
  store ptr %17, ptr %12, align 8
  %.not.i.i = icmp eq ptr %18, null
  br i1 %.not.i.i, label %_ZNSt10unique_ptrIN3ue29ComponentESt14default_deleteIS1_EE5resetEPS1_.exit, label %_ZNKSt14default_deleteIN3ue29ComponentEEclEPS1_.exit.i.i

_ZNKSt14default_deleteIN3ue29ComponentEEclEPS1_.exit.i.i: ; preds = %19
  %20 = load ptr, ptr %18, align 8
  %21 = getelementptr inbounds nuw i8, ptr %20, i64 8
  %22 = load ptr, ptr %21, align 8
  tail call void %22(ptr noundef nonnull align 8 dereferenceable(16) %18) #19
  br label %_ZNSt10unique_ptrIN3ue29ComponentESt14default_deleteIS1_EE5resetEPS1_.exit

_ZNSt10unique_ptrIN3ue29ComponentESt14default_deleteIS1_EE5resetEPS1_.exit: ; preds = %_ZNKSt14default_deleteIN3ue29ComponentEEclEPS1_.exit.i.i, %19, %11
  %23 = load ptr, ptr %1, align 8
  %24 = getelementptr inbounds nuw i8, ptr %23, i64 208
  %25 = load ptr, ptr %24, align 8
  tail call void %25(ptr noundef nonnull align 8 dereferenceable(8) %1, ptr noundef nonnull %0)
  %26 = load ptr, ptr %12, align 8
  %.not14 = icmp eq ptr %26, null
  %. = select i1 %.not14, ptr null, ptr %0
  br label %27

27:                                               ; preds = %_ZNSt10unique_ptrIN3ue29ComponentESt14default_deleteIS1_EE5resetEPS1_.exit, %7
  %.0 = phi ptr [ %6, %7 ], [ %., %_ZNSt10unique_ptrIN3ue29ComponentESt14default_deleteIS1_EE5resetEPS1_.exit ]
  ret ptr %.0
}